; Function Attrs: mustprogress uwtable
define noundef zeroext i1 @_ZN5draco30AttributeQuantizationTransform13SetParametersEiPKfif(ptr noundef nonnull align 8 dereferenceable(44) %0, i32 noundef %1, ptr noundef %2, i32 noundef %3, float noundef %4) local_unnamed_addr #3 align 2 {
  %6 = add i32 %1, -1
  %7 = icmp ult i32 %6, 30
  br i1 %7, label %8, label %14

8:                                                ; preds = %5
  %9 = getelementptr inbounds i8, ptr %0, i64 8
  store i32 %1, ptr %9, align 8
  %10 = getelementptr inbounds i8, ptr %0, i64 16
  %11 = sext i32 %3 to i64
  %12 = getelementptr inbounds float, ptr %2, i64 %11
  tail call void @_ZNSt6vectorIfSaIfEE13_M_assign_auxIPKfEEvT_S5_St20forward_iterator_tag(ptr noundef nonnull align 8 dereferenceable(24) %10, ptr noundef %2, ptr noundef %12)
  %13 = getelementptr inbounds i8, ptr %0, i64 40
  store float %4, ptr %13, align 8
  br label %14

14:                                               ; preds = %5, %8
  ret i1 %7
}